target datalayout = "e-m:e-p270:32:32-p271:32:32-p272:64:64-i64:64-i128:128-f80:128-n8:16:32:64-S128"
target triple = "x86_64-unknown-linux-gnu"

%class.symbol = type { ptr }
%class.ptr_vector.58 = type { %class.vector.59 }
%class.vector.59 = type { ptr }
%"class.datalog::tr_infrastructure<datalog::relation_traits>::plugin_object" = type { ptr, i32, %class.symbol, ptr }
%class.svector.175 = type { %class.vector.176 }
%class.vector.176 = type { ptr }
%"struct.datalog::rel_spec" = type { %class.svector.175 }
%"class.datalog::relation_signature" = type { %"class.datalog::tr_infrastructure<datalog::relation_traits>::signature_base" }
%"class.datalog::tr_infrastructure<datalog::relation_traits>::signature_base" = type { %class.ptr_vector.58 }

; Function Attrs: mustprogress nounwind uwtable
define linkonce_odr hidden void @_ZN6vectorIP4sortLb0EjEC2Ev(ptr noundef nonnull align 8 dereferenceable(8) %this) unnamed_addr #5 comdat align 2 {
entry:
  %this.addr = alloca ptr, align 8
  store ptr %this, ptr %this.addr, align 8
  %this1 = load ptr, ptr %this.addr, align 8
  %m_data = getelementptr inbounds %class.vector.59, ptr %this1, i32 0, i32 0
  store ptr null, ptr %m_data, align 8
  ret void
}

; Function Attrs: mustprogress nounwind uwtable
define linkonce_odr hidden void @_ZN10ptr_vectorI4sortEC2Ev(ptr noundef nonnull align 8 dereferenceable(8) %this) unnamed_addr #5 comdat align 2 {
entry:
  %this.addr = alloca ptr, align 8
  store ptr %this, ptr %this.addr, align 8
  %this1 = load ptr, ptr %this.addr, align 8
  %0 = getelementptr inbounds i8, ptr %this1, i64 0
  call void @llvm.memset.p0.i64(ptr align 8 %0, i8 0, i64 8, i1 false)
  call void @_ZN6vectorIP4sortLb0EjEC2Ev(ptr noundef nonnull align 8 dereferenceable(8) %this1) #3
  ret void
}

; Function Attrs: mustprogress nounwind uwtable
define linkonce_odr hidden void @_ZN6vectorIiLb0EjEC2Ev(ptr noundef nonnull align 8 dereferenceable(8) %this) unnamed_addr #5 comdat align 2 {
entry:
  %this.addr = alloca ptr, align 8
  store ptr %this, ptr %this.addr, align 8
  %this1 = load ptr, ptr %this.addr, align 8
  %m_data = getelementptr inbounds %class.vector.176, ptr %this1, i32 0, i32 0
  store ptr null, ptr %m_data, align 8
  ret void
}

; Function Attrs: mustprogress nounwind uwtable
define linkonce_odr hidden void @_ZN7datalog17tr_infrastructureINS_15relation_traitsEE14signature_baseC2Ev(ptr noundef nonnull align 8 dereferenceable(8) %this) unnamed_addr #5 comdat align 2 {
entry:
  %this.addr = alloca ptr, align 8
  store ptr %this, ptr %this.addr, align 8
  %this1 = load ptr, ptr %this.addr, align 8
  call void @_ZN10ptr_vectorI4sortEC2Ev(ptr noundef nonnull align 8 dereferenceable(8) %this1)
  ret void
}

; Function Attrs: mustprogress nounwind uwtable
define linkonce_odr hidden void @_ZN7svectorIijEC2Ev(ptr noundef nonnull align 8 dereferenceable(8) %this) unnamed_addr #5 comdat align 2 {
entry:
  %this.addr = alloca ptr, align 8
  store ptr %this, ptr %this.addr, align 8
  %this1 = load ptr, ptr %this.addr, align 8
  %0 = getelementptr inbounds i8, ptr %this1, i64 0
  call void @llvm.memset.p0.i64(ptr align 8 %0, i8 0, i64 8, i1 false)
  call void @_ZN6vectorIiLb0EjEC2Ev(ptr noundef nonnull align 8 dereferenceable(8) %this1) #3
  ret void
}

; Function Attrs: mustprogress uwtable
define linkonce_odr hidden void @_ZN7datalog18relation_signatureC2Ev(ptr noundef nonnull align 8 dereferenceable(8) %this) unnamed_addr #4 comdat align 2 {
entry:
  %this.addr = alloca ptr, align 8
  store ptr %this, ptr %this.addr, align 8
  %this1 = load ptr, ptr %this.addr, align 8
  call void @_ZN7datalog17tr_infrastructureINS_15relation_traitsEE14signature_baseC2Ev(ptr noundef nonnull align 8 dereferenceable(8) %this1)
  ret void
}

; Function Attrs: mustprogress nounwind uwtable
define linkonce_odr hidden noundef nonnull align 4 dereferenceable(4) ptr @_ZN6vectorIiLb0EjEixEj(ptr noundef nonnull align 8 dereferenceable(8) %this, i32 noundef %idx) #5 comdat align 2 {
entry:
  %this.addr = alloca ptr, align 8
  %idx.addr = alloca i32, align 4
  store ptr %this, ptr %this.addr, align 8
  store i32 %idx, ptr %idx.addr, align 4
  %this1 = load ptr, ptr %this.addr, align 8
  %m_data = getelementptr inbounds %class.vector.176, ptr %this1, i32 0, i32 0
  %0 = load ptr, ptr %m_data, align 8
  %1 = load i32, ptr %idx.addr, align 4
  %idxprom = zext i32 %1 to i64
  %arrayidx = getelementptr inbounds i32, ptr %0, i64 %idxprom
  ret ptr %arrayidx
}

; Function Attrs: mustprogress nounwind uwtable
define linkonce_odr hidden noundef i32 @_ZNK6vectorIiLb0EjE4sizeEv(ptr noundef nonnull align 8 dereferenceable(8) %this) #5 comdat align 2 {
entry:
  %retval = alloca i32, align 4
  %this.addr = alloca ptr, align 8
  store ptr %this, ptr %this.addr, align 8
  %this1 = load ptr, ptr %this.addr, align 8
  %m_data = getelementptr inbounds %class.vector.176, ptr %this1, i32 0, i32 0
  %0 = load ptr, ptr %m_data, align 8
  %cmp = icmp eq ptr %0, null
  br i1 %cmp, label %if.then, label %if.end

if.then:                                          ; preds = %entry
  store i32 0, ptr %retval, align 4
  br label %return

if.end:                                           ; preds = %entry
  %m_data2 = getelementptr inbounds %class.vector.176, ptr %this1, i32 0, i32 0
  %1 = load ptr, ptr %m_data2, align 8
  %arrayidx = getelementptr inbounds i32, ptr %1, i64 -1
  %2 = load i32, ptr %arrayidx, align 4
  store i32 %2, ptr %retval, align 4
  br label %return

return:                                           ; preds = %if.end, %if.then
  %3 = load i32, ptr %retval, align 4
  ret i32 %3
}

; Function Attrs: mustprogress uwtable
define linkonce_odr hidden noundef nonnull align 8 dereferenceable(8) ptr @_ZN6vectorIiLb0EjE9push_backEOi(ptr noundef nonnull align 8 dereferenceable(8) %this, ptr noundef nonnull align 4 dereferenceable(4) %elem) #4 comdat align 2 {
entry:
  %this.addr = alloca ptr, align 8
  %elem.addr = alloca ptr, align 8
  store ptr %this, ptr %this.addr, align 8
  store ptr %elem, ptr %elem.addr, align 8
  %this1 = load ptr, ptr %this.addr, align 8
  %m_data = getelementptr inbounds %class.vector.176, ptr %this1, i32 0, i32 0
  %0 = load ptr, ptr %m_data, align 8
  %cmp = icmp eq ptr %0, null
  br i1 %cmp, label %if.then, label %lor.lhs.false

lor.lhs.false:                                    ; preds = %entry
  %m_data2 = getelementptr inbounds %class.vector.176, ptr %this1, i32 0, i32 0
  %1 = load ptr, ptr %m_data2, align 8
  %arrayidx = getelementptr inbounds i32, ptr %1, i64 -1
  %2 = load i32, ptr %arrayidx, align 4
  %m_data3 = getelementptr inbounds %class.vector.176, ptr %this1, i32 0, i32 0
  %3 = load ptr, ptr %m_data3, align 8
  %arrayidx4 = getelementptr inbounds i32, ptr %3, i64 -2
  %4 = load i32, ptr %arrayidx4, align 4
  %cmp5 = icmp eq i32 %2, %4
  br i1 %cmp5, label %if.then, label %if.end

if.then:                                          ; preds = %lor.lhs.false, %entry
  call void @_ZN6vectorIiLb0EjE13expand_vectorEv(ptr noundef nonnull align 8 dereferenceable(8) %this1)
  br label %if.end

if.end:                                           ; preds = %if.then, %lor.lhs.false
  %m_data6 = getelementptr inbounds %class.vector.176, ptr %this1, i32 0, i32 0
  %5 = load ptr, ptr %m_data6, align 8
  %m_data7 = getelementptr inbounds %class.vector.176, ptr %this1, i32 0, i32 0
  %6 = load ptr, ptr %m_data7, align 8
  %arrayidx8 = getelementptr inbounds i32, ptr %6, i64 -1
  %7 = load i32, ptr %arrayidx8, align 4
  %idx.ext = zext i32 %7 to i64
  %add.ptr = getelementptr inbounds i32, ptr %5, i64 %idx.ext
  %8 = load ptr, ptr %elem.addr, align 8
  %9 = load i32, ptr %8, align 4
  store i32 %9, ptr %add.ptr, align 4
  %m_data9 = getelementptr inbounds %class.vector.176, ptr %this1, i32 0, i32 0
  %10 = load ptr, ptr %m_data9, align 8
  %arrayidx10 = getelementptr inbounds i32, ptr %10, i64 -1
  %11 = load i32, ptr %arrayidx10, align 4
  %inc = add i32 %11, 1
  store i32 %inc, ptr %arrayidx10, align 4
  ret ptr %this1
}

; Function Attrs: mustprogress uwtable
define linkonce_odr hidden void @_ZN7datalog8rel_specC2Ev(ptr noundef nonnull align 8 dereferenceable(8) %this) unnamed_addr #4 comdat align 2 {
entry:
  %this.addr = alloca ptr, align 8
  store ptr %this, ptr %this.addr, align 8
  %this1 = load ptr, ptr %this.addr, align 8
  call void @_ZN7svectorIijEC2Ev(ptr noundef nonnull align 8 dereferenceable(8) %this1)
  ret void
}

; Function Attrs: mustprogress nounwind uwtable
define linkonce_odr hidden noundef i32 @_ZNK7datalog17tr_infrastructureINS_15relation_traitsEE13plugin_object8get_kindEv(ptr noundef nonnull align 8 dereferenceable(32) %this) #5 comdat align 2 {
entry:
  %this.addr = alloca ptr, align 8
  store ptr %this, ptr %this.addr, align 8
  %this1 = load ptr, ptr %this.addr, align 8
  %m_kind = getelementptr inbounds %"class.datalog::tr_infrastructure<datalog::relation_traits>::plugin_object", ptr %this1, i32 0, i32 1
  %0 = load i32, ptr %m_kind, align 8
  ret i32 %0
}

; Function Attrs: mustprogress uwtable
define hidden void @_ZN7datalog11rel_context28set_predicate_representationEP9func_decljPK6symbol(ptr noundef nonnull align 8 dereferenceable(432) %this, ptr noundef %pred, i32 noundef %relation_name_cnt, ptr noundef %relation_names) unnamed_addr #4 align 2 personality ptr @__gxx_personality_v0 {
entry:
  %this.addr = alloca ptr, align 8
  %pred.addr = alloca ptr, align 8
  %relation_name_cnt.addr = alloca i32, align 4
  %relation_names.addr = alloca ptr, align 8
  %rmgr = alloca ptr, align 8
  %target_kind = alloca i32, align 4
  %agg.tmp = alloca %class.symbol, align 8
  %rel_kinds = alloca %"struct.datalog::rel_spec", align 8
  %rel_kind = alloca i32, align 4
  %i = alloca i32, align 4
  %p = alloca ptr, align 8
  %agg.tmp5 = alloca %class.symbol, align 8
  %exn.slot = alloca ptr, align 8
  %ehselector.slot = alloca i32, align 4
  %ref.tmp = alloca i32, align 4
  %rel_sig = alloca %"class.datalog::relation_signature", align 8
  %prod_plugin = alloca ptr, align 8
  store ptr %this, ptr %this.addr, align 8
  store ptr %pred, ptr %pred.addr, align 8
  store i32 %relation_name_cnt, ptr %relation_name_cnt.addr, align 4
  store ptr %relation_names, ptr %relation_names.addr, align 8
  %this1 = load ptr, ptr %this.addr, align 8
  %vtable = load ptr, ptr %this1, align 8
  %vfn = getelementptr inbounds ptr, ptr %vtable, i64 24
  %0 = load ptr, ptr %vfn, align 8
  %call = call noundef nonnull align 8 dereferenceable(200) ptr %0(ptr noundef nonnull align 8 dereferenceable(432) %this1)
  store ptr %call, ptr %rmgr, align 8
  store i32 -1, ptr %target_kind, align 4
  %1 = load i32, ptr %relation_name_cnt.addr, align 4
  switch i32 %1, label %sw.default [
    i32 0, label %sw.bb
    i32 1, label %sw.bb2
  ]

sw.bb:                                            ; preds = %entry
  br label %return

sw.bb2:                                           ; preds = %entry
  %2 = load ptr, ptr %relation_names.addr, align 8
  %arrayidx = getelementptr inbounds %class.symbol, ptr %2, i64 0
  call void @llvm.memcpy.p0.p0.i64(ptr align 8 %agg.tmp, ptr align 8 %arrayidx, i64 8, i1 false)
  %coerce.dive = getelementptr inbounds %class.symbol, ptr %agg.tmp, i32 0, i32 0
  %3 = load ptr, ptr %coerce.dive, align 8
  %call3 = call noundef nonnull align 8 dereferenceable(36) ptr @_ZN7datalog11rel_context28get_ordinary_relation_pluginE6symbol(ptr noundef nonnull align 8 dereferenceable(432) %this1, ptr %3)
  %call4 = call noundef i32 @_ZNK7datalog17tr_infrastructureINS_15relation_traitsEE13plugin_object8get_kindEv(ptr noundef nonnull align 8 dereferenceable(32) %call3)
  store i32 %call4, ptr %target_kind, align 4
  br label %sw.epilog

sw.default:                                       ; preds = %entry
  call void @_ZN7datalog8rel_specC2Ev(ptr noundef nonnull align 8 dereferenceable(8) %rel_kinds)
  store i32 0, ptr %i, align 4
  br label %for.cond

for.cond:                                         ; preds = %for.inc, %sw.default
  %4 = load i32, ptr %i, align 4
  %5 = load i32, ptr %relation_name_cnt.addr, align 4
  %cmp = icmp ult i32 %4, %5
  br i1 %cmp, label %for.body, label %for.end

for.body:                                         ; preds = %for.cond
  %6 = load ptr, ptr %relation_names.addr, align 8
  %7 = load i32, ptr %i, align 4
  %idxprom = zext i32 %7 to i64
  %arrayidx6 = getelementptr inbounds %class.symbol, ptr %6, i64 %idxprom
  call void @llvm.memcpy.p0.p0.i64(ptr align 8 %agg.tmp5, ptr align 8 %arrayidx6, i64 8, i1 false)
  %coerce.dive7 = getelementptr inbounds %class.symbol, ptr %agg.tmp5, i32 0, i32 0
  %8 = load ptr, ptr %coerce.dive7, align 8
  %call8 = invoke noundef nonnull align 8 dereferenceable(36) ptr @_ZN7datalog11rel_context28get_ordinary_relation_pluginE6symbol(ptr noundef nonnull align 8 dereferenceable(432) %this1, ptr %8)
          to label %invoke.cont unwind label %lpad

invoke.cont:                                      ; preds = %for.body
  store ptr %call8, ptr %p, align 8
  %9 = load ptr, ptr %p, align 8
  %call10 = invoke noundef i32 @_ZNK7datalog17tr_infrastructureINS_15relation_traitsEE13plugin_object8get_kindEv(ptr noundef nonnull align 8 dereferenceable(32) %9)
          to label %invoke.cont9 unwind label %lpad

invoke.cont9:                                     ; preds = %invoke.cont
  store i32 %call10, ptr %ref.tmp, align 4
  %call12 = invoke noundef nonnull align 8 dereferenceable(8) ptr @_ZN6vectorIiLb0EjE9push_backEOi(ptr noundef nonnull align 8 dereferenceable(8) %rel_kinds, ptr noundef nonnull align 4 dereferenceable(4) %ref.tmp)
          to label %invoke.cont11 unwind label %lpad

invoke.cont11:                                    ; preds = %invoke.cont9
  br label %for.inc

for.inc:                                          ; preds = %invoke.cont11
  %10 = load i32, ptr %i, align 4
  %inc = add i32 %10, 1
  store i32 %inc, ptr %i, align 4
  br label %for.cond, !llvm.loop !16

lpad:                                             ; preds = %if.else, %if.then, %for.end, %invoke.cont9, %invoke.cont, %for.body
  %11 = landingpad { ptr, i32 }
          cleanup
  %12 = extractvalue { ptr, i32 } %11, 0
  store ptr %12, ptr %exn.slot, align 8
  %13 = extractvalue { ptr, i32 } %11, 1
  store i32 %13, ptr %ehselector.slot, align 4
  br label %ehcleanup

for.end:                                          ; preds = %for.cond
  %call14 = invoke noundef i32 @_ZNK6vectorIiLb0EjE4sizeEv(ptr noundef nonnull align 8 dereferenceable(8) %rel_kinds)
          to label %invoke.cont13 unwind label %lpad

invoke.cont13:                                    ; preds = %for.end
  %cmp15 = icmp eq i32 %call14, 1
  br i1 %cmp15, label %if.then, label %if.else

if.then:                                          ; preds = %invoke.cont13
  %call17 = invoke noundef nonnull align 4 dereferenceable(4) ptr @_ZN6vectorIiLb0EjEixEj(ptr noundef nonnull align 8 dereferenceable(8) %rel_kinds, i32 noundef 0)
          to label %invoke.cont16 unwind label %lpad

invoke.cont16:                                    ; preds = %if.then
  %14 = load i32, ptr %call17, align 4
  store i32 %14, ptr %rel_kind, align 4
  br label %if.end

if.else:                                          ; preds = %invoke.cont13
  invoke void @_ZN7datalog18relation_signatureC2Ev(ptr noundef nonnull align 8 dereferenceable(8) %rel_sig)
          to label %invoke.cont18 unwind label %lpad

invoke.cont18:                                    ; preds = %if.else
  %15 = load ptr, ptr %rmgr, align 8
  %16 = load ptr, ptr %pred.addr, align 8
  invoke void @_ZN7datalog16relation_manager14from_predicateEP9func_declRNS_18relation_signatureE(ptr noundef nonnull align 8 dereferenceable(200) %15, ptr noundef %16, ptr noundef nonnull align 8 dereferenceable(8) %rel_sig)
          to label %invoke.cont20 unwind label %lpad19

invoke.cont20:                                    ; preds = %invoke.cont18
  %17 = load ptr, ptr %rmgr, align 8
  %call22 = invoke noundef nonnull align 8 dereferenceable(104) ptr @_ZN7datalog23product_relation_plugin10get_pluginERNS_16relation_managerE(ptr noundef nonnull align 8 dereferenceable(200) %17)
          to label %invoke.cont21 unwind label %lpad19

invoke.cont21:                                    ; preds = %invoke.cont20
  store ptr %call22, ptr %prod_plugin, align 8
  %18 = load ptr, ptr %prod_plugin, align 8
  %call24 = invoke noundef i32 @_ZN7datalog23product_relation_plugin17get_relation_kindERKNS_18relation_signatureERKNS_8rel_specE(ptr noundef nonnull align 8 dereferenceable(104) %18, ptr noundef nonnull align 8 dereferenceable(8) %rel_sig, ptr noundef nonnull align 8 dereferenceable(8) %rel_kinds)
          to label %invoke.cont23 unwind label %lpad19

invoke.cont23:                                    ; preds = %invoke.cont21
  store i32 %call24, ptr %rel_kind, align 4
  call void @_ZN7datalog18relation_signatureD2Ev(ptr noundef nonnull align 8 dereferenceable(8) %rel_sig) #3
  br label %if.end

lpad19:                                           ; preds = %invoke.cont21, %invoke.cont20, %invoke.cont18
  %19 = landingpad { ptr, i32 }
          cleanup
  %20 = extractvalue { ptr, i32 } %19, 0
  store ptr %20, ptr %exn.slot, align 8
  %21 = extractvalue { ptr, i32 } %19, 1
  store i32 %21, ptr %ehselector.slot, align 4
  call void @_ZN7datalog18relation_signatureD2Ev(ptr noundef nonnull align 8 dereferenceable(8) %rel_sig) #3
  br label %ehcleanup

if.end:                                           ; preds = %invoke.cont23, %invoke.cont16
  %22 = load i32, ptr %rel_kind, align 4
  store i32 %22, ptr %target_kind, align 4
  call void @_ZN7datalog8rel_specD2Ev(ptr noundef nonnull align 8 dereferenceable(8) %rel_kinds) #3
  br label %sw.epilog

ehcleanup:                                        ; preds = %lpad19, %lpad
  call void @_ZN7datalog8rel_specD2Ev(ptr noundef nonnull align 8 dereferenceable(8) %rel_kinds) #3
  br label %eh.resume

sw.epilog:                                        ; preds = %if.end, %sw.bb2
  %vtable25 = load ptr, ptr %this1, align 8
  %vfn26 = getelementptr inbounds ptr, ptr %vtable25, i64 24
  %23 = load ptr, ptr %vfn26, align 8
  %call27 = call noundef nonnull align 8 dereferenceable(200) ptr %23(ptr noundef nonnull align 8 dereferenceable(432) %this1)
  %24 = load ptr, ptr %pred.addr, align 8
  %25 = load i32, ptr %target_kind, align 4
  call void @_ZN7datalog16relation_manager18set_predicate_kindEP9func_decli(ptr noundef nonnull align 8 dereferenceable(200) %call27, ptr noundef %24, i32 noundef %25)
  br label %return

return:                                           ; preds = %sw.epilog, %sw.bb
  ret void

eh.resume:                                        ; preds = %ehcleanup
  %exn = load ptr, ptr %exn.slot, align 8
  %sel = load i32, ptr %ehselector.slot, align 4
  %lpad.val = insertvalue { ptr, i32 } poison, ptr %exn, 0
  %lpad.val28 = insertvalue { ptr, i32 } %lpad.val, i32 %sel, 1
  resume { ptr, i32 } %lpad.val28
}