; Function Attrs: mustprogress uwtable
define hidden void @_ZN7datalog11rel_context28set_predicate_representationEP9func_decljPK6symbol(ptr noundef nonnull align 8 dereferenceable(432) %this, ptr noundef %pred, i32 noundef %relation_name_cnt, ptr nocapture noundef readonly %relation_names) unnamed_addr #3 align 2 personality ptr @__gxx_personality_v0 {
entry:
  %rel_kinds = alloca %"struct.datalog::rel_spec", align 8
  %rel_sig = alloca %"class.datalog::relation_signature", align 8
  %vtable = load ptr, ptr %this, align 8
  %vfn = getelementptr inbounds i8, ptr %vtable, i64 192
  %0 = load ptr, ptr %vfn, align 8
  %call = tail call noundef nonnull align 8 dereferenceable(200) ptr %0(ptr noundef nonnull align 8 dereferenceable(432) %this)
  switch i32 %relation_name_cnt, label %for.body.preheader [
    i32 0, label %return
    i32 1, label %sw.bb2
  ]

sw.bb2:                                           ; preds = %entry
  %agg.tmp.sroa.0.0.copyload = load ptr, ptr %relation_names, align 8
  %call3 = tail call noundef nonnull align 8 dereferenceable(36) ptr @_ZN7datalog11rel_context28get_ordinary_relation_pluginE6symbol(ptr noundef nonnull align 8 dereferenceable(432) %this, ptr %agg.tmp.sroa.0.0.copyload)
  %m_kind.i = getelementptr inbounds i8, ptr %call3, i64 8
  %1 = load i32, ptr %m_kind.i, align 8
  br label %sw.epilog

for.body.preheader:                               ; preds = %entry
  store ptr null, ptr %rel_kinds, align 8
  %wide.trip.count = zext i32 %relation_name_cnt to i64
  br label %for.body

for.body:                                         ; preds = %for.body.preheader, %for.inc
  %indvars.iv = phi i64 [ 0, %for.body.preheader ], [ %indvars.iv.next, %for.inc ]
  %arrayidx6 = getelementptr inbounds %class.symbol, ptr %relation_names, i64 %indvars.iv
  %agg.tmp5.sroa.0.0.copyload = load ptr, ptr %arrayidx6, align 8
  %call8 = invoke noundef nonnull align 8 dereferenceable(36) ptr @_ZN7datalog11rel_context28get_ordinary_relation_pluginE6symbol(ptr noundef nonnull align 8 dereferenceable(432) %this, ptr %agg.tmp5.sroa.0.0.copyload)
          to label %invoke.cont unwind label %lpad

invoke.cont:                                      ; preds = %for.body
  %m_kind.i8 = getelementptr inbounds i8, ptr %call8, i64 8
  %2 = load i32, ptr %m_kind.i8, align 8
  %3 = load ptr, ptr %rel_kinds, align 8
  %cmp.i = icmp eq ptr %3, null
  br i1 %cmp.i, label %if.then.i, label %lor.lhs.false.i

lor.lhs.false.i:                                  ; preds = %invoke.cont
  %arrayidx.i = getelementptr inbounds i8, ptr %3, i64 -4
  %4 = load i32, ptr %arrayidx.i, align 4
  %arrayidx4.i = getelementptr inbounds i8, ptr %3, i64 -8
  %5 = load i32, ptr %arrayidx4.i, align 4
  %cmp5.i = icmp eq i32 %4, %5
  br i1 %cmp5.i, label %if.then.i, label %for.inc

if.then.i:                                        ; preds = %lor.lhs.false.i, %invoke.cont
  invoke void @_ZN6vectorIiLb0EjE13expand_vectorEv(ptr noundef nonnull align 8 dereferenceable(8) %rel_kinds)
          to label %.noexc unwind label %lpad

.noexc:                                           ; preds = %if.then.i
  %.pre.i = load ptr, ptr %rel_kinds, align 8
  %arrayidx8.phi.trans.insert.i = getelementptr inbounds i8, ptr %.pre.i, i64 -4
  %.pre1.i = load i32, ptr %arrayidx8.phi.trans.insert.i, align 4
  br label %for.inc

for.inc:                                          ; preds = %.noexc, %lor.lhs.false.i
  %6 = phi i32 [ %.pre1.i, %.noexc ], [ %4, %lor.lhs.false.i ]
  %7 = phi ptr [ %.pre.i, %.noexc ], [ %3, %lor.lhs.false.i ]
  %idx.ext.i = zext i32 %6 to i64
  %add.ptr.i = getelementptr inbounds i32, ptr %7, i64 %idx.ext.i
  store i32 %2, ptr %add.ptr.i, align 4
  %8 = load ptr, ptr %rel_kinds, align 8
  %arrayidx10.i = getelementptr inbounds i8, ptr %8, i64 -4
  %9 = load i32, ptr %arrayidx10.i, align 4
  %inc.i = add i32 %9, 1
  store i32 %inc.i, ptr %arrayidx10.i, align 4
  %indvars.iv.next = add nuw nsw i64 %indvars.iv, 1
  %exitcond.not = icmp eq i64 %indvars.iv.next, %wide.trip.count
  br i1 %exitcond.not, label %for.end, label %for.body, !llvm.loop !29

lpad:                                             ; preds = %if.then.i, %for.body
  %10 = landingpad { ptr, i32 }
          cleanup
  br label %ehcleanup

for.end:                                          ; preds = %for.inc
  %.pre = load ptr, ptr %rel_kinds, align 8
  %cmp.i9 = icmp eq ptr %.pre, null
  br i1 %cmp.i9, label %invoke.cont18, label %_ZNK6vectorIiLb0EjE4sizeEv.exit

_ZNK6vectorIiLb0EjE4sizeEv.exit:                  ; preds = %for.end
  %arrayidx.i10 = getelementptr inbounds i8, ptr %.pre, i64 -4
  %11 = load i32, ptr %arrayidx.i10, align 4
  %cmp15 = icmp eq i32 %11, 1
  br i1 %cmp15, label %if.then, label %invoke.cont18

if.then:                                          ; preds = %_ZNK6vectorIiLb0EjE4sizeEv.exit
  %12 = load i32, ptr %.pre, align 4
  br label %if.end

invoke.cont18:                                    ; preds = %for.end, %_ZNK6vectorIiLb0EjE4sizeEv.exit
  store ptr null, ptr %rel_sig, align 8
  invoke void @_ZN7datalog16relation_manager14from_predicateEP9func_declRNS_18relation_signatureE(ptr noundef nonnull align 8 dereferenceable(200) %call, ptr noundef %pred, ptr noundef nonnull align 8 dereferenceable(8) %rel_sig)
          to label %invoke.cont20 unwind label %lpad19

invoke.cont20:                                    ; preds = %invoke.cont18
  %call22 = invoke noundef nonnull align 8 dereferenceable(104) ptr @_ZN7datalog23product_relation_plugin10get_pluginERNS_16relation_managerE(ptr noundef nonnull align 8 dereferenceable(200) %call)
          to label %invoke.cont21 unwind label %lpad19

invoke.cont21:                                    ; preds = %invoke.cont20
  %call24 = invoke noundef i32 @_ZN7datalog23product_relation_plugin17get_relation_kindERKNS_18relation_signatureERKNS_8rel_specE(ptr noundef nonnull align 8 dereferenceable(104) %call22, ptr noundef nonnull align 8 dereferenceable(8) %rel_sig, ptr noundef nonnull align 8 dereferenceable(8) %rel_kinds)
          to label %invoke.cont23 unwind label %lpad19

invoke.cont23:                                    ; preds = %invoke.cont21
  %13 = load ptr, ptr %rel_sig, align 8
  %tobool.not.i.i.i.i.i = icmp eq ptr %13, null
  br i1 %tobool.not.i.i.i.i.i, label %if.end, label %if.then.i.i.i.i.i

if.then.i.i.i.i.i:                                ; preds = %invoke.cont23
  %add.ptr.i.i.i.i.i.i = getelementptr inbounds i8, ptr %13, i64 -8
  invoke void @_ZN6memory10deallocateEPv(ptr noundef nonnull %add.ptr.i.i.i.i.i.i)
          to label %if.end unwind label %terminate.lpad.i.i.i.i

terminate.lpad.i.i.i.i:                           ; preds = %if.then.i.i.i.i.i
  %14 = landingpad { ptr, i32 }
          catch ptr null
  %15 = extractvalue { ptr, i32 } %14, 0
  call void @__clang_call_terminate(ptr %15) #20
  unreachable

lpad19:                                           ; preds = %invoke.cont21, %invoke.cont20, %invoke.cont18
  %16 = landingpad { ptr, i32 }
          cleanup
  call void @_ZN7datalog18relation_signatureD2Ev(ptr noundef nonnull align 8 dereferenceable(8) %rel_sig) #19
  br label %ehcleanup

if.end:                                           ; preds = %if.then.i.i.i.i.i, %invoke.cont23, %if.then
  %rel_kind.0 = phi i32 [ %12, %if.then ], [ %call24, %invoke.cont23 ], [ %call24, %if.then.i.i.i.i.i ]
  %17 = load ptr, ptr %rel_kinds, align 8
  %tobool.not.i.i.i.i = icmp eq ptr %17, null
  br i1 %tobool.not.i.i.i.i, label %sw.epilog, label %if.then.i.i.i.i

if.then.i.i.i.i:                                  ; preds = %if.end
  %add.ptr.i.i.i.i.i = getelementptr inbounds i8, ptr %17, i64 -8
  invoke void @_ZN6memory10deallocateEPv(ptr noundef nonnull %add.ptr.i.i.i.i.i)
          to label %sw.epilog unwind label %terminate.lpad.i.i.i

terminate.lpad.i.i.i:                             ; preds = %if.then.i.i.i.i
  %18 = landingpad { ptr, i32 }
          catch ptr null
  %19 = extractvalue { ptr, i32 } %18, 0
  call void @__clang_call_terminate(ptr %19) #20
  unreachable

ehcleanup:                                        ; preds = %lpad19, %lpad
  %.pn = phi { ptr, i32 } [ %10, %lpad ], [ %16, %lpad19 ]
  call void @_ZN7datalog8rel_specD2Ev(ptr noundef nonnull align 8 dereferenceable(8) %rel_kinds) #19
  resume { ptr, i32 } %.pn

sw.epilog:                                        ; preds = %if.then.i.i.i.i, %if.end, %sw.bb2
  %target_kind.0 = phi i32 [ %1, %sw.bb2 ], [ %rel_kind.0, %if.end ], [ %rel_kind.0, %if.then.i.i.i.i ]
  %vtable25 = load ptr, ptr %this, align 8
  %vfn26 = getelementptr inbounds i8, ptr %vtable25, i64 192
  %20 = load ptr, ptr %vfn26, align 8
  %call27 = call noundef nonnull align 8 dereferenceable(200) ptr %20(ptr noundef nonnull align 8 dereferenceable(432) %this)
  call void @_ZN7datalog16relation_manager18set_predicate_kindEP9func_decli(ptr noundef nonnull align 8 dereferenceable(200) %call27, ptr noundef %pred, i32 noundef %target_kind.0)
  br label %return

return:                                           ; preds = %entry, %sw.epilog
  ret void
}